target datalayout = "e-m:e-p270:32:32-p271:32:32-p272:64:64-i64:64-i128:128-f80:128-n8:16:32:64-S128"
target triple = "x86_64-pc-linux-gnu"

%struct.WarpedMotionParams = type { [8 x i32], i16, i16, i16, i16, i8, i8 }
%struct.wedge_params_type = type { i32, ptr, ptr, ptr }
%struct.INTERINTER_COMPOUND_DATA = type { ptr, i8, i8, i8, i8 }
%struct.InterPredParams = type { i32, i32, %struct.WarpedMotionParams, %struct.ConvolveParams, [2 x ptr], i32, i32, i32, i32, %struct.buf_2d, i32, i32, ptr, i32, i32, %struct.INTERINTER_COMPOUND_DATA, i8, i32 }
%struct.ConvolveParams = type { i32, ptr, i32, i32, i32, i32, i32, i32, i32, i32 }
%struct.buf_2d = type { ptr, ptr, i32, i32, i32 }
%struct.SubpelParams = type { i32, i32, i32, i32 }

@block_size_wide = internal constant [22 x i8] c"\04\04\08\08\08\10\10\10   @@@\80\80\04\10\08 \10@", align 16

; Function Attrs: nounwind uwtable
define internal ptr @av1_get_contiguous_soft_mask(i8 noundef signext %0, i8 noundef signext %1, i8 noundef zeroext %2) #0 {
  %4 = alloca i8, align 1
  %5 = alloca i8, align 1
  %6 = alloca i8, align 1
  store i8 %0, ptr %4, align 1
  store i8 %1, ptr %5, align 1
  store i8 %2, ptr %6, align 1
  %7 = load i8, ptr %6, align 1
  %8 = zext i8 %7 to i64
  %9 = getelementptr inbounds [22 x %struct.wedge_params_type], ptr @av1_wedge_params_lookup, i64 0, i64 %8
  %10 = getelementptr inbounds nuw %struct.wedge_params_type, ptr %9, i32 0, i32 3
  %11 = load ptr, ptr %10, align 8
  %12 = load i8, ptr %5, align 1
  %13 = sext i8 %12 to i64
  %14 = getelementptr inbounds [16 x ptr], ptr %11, i64 %13
  %15 = load i8, ptr %4, align 1
  %16 = sext i8 %15 to i64
  %17 = getelementptr inbounds [16 x ptr], ptr %14, i64 0, i64 %16
  %18 = load ptr, ptr %17, align 8
  ret ptr %18
}

; Function Attrs: nounwind uwtable
define hidden ptr @av1_get_compound_type_mask(ptr noundef %0, i8 noundef zeroext %1) #0 {
  %3 = alloca ptr, align 8
  %4 = alloca ptr, align 8
  %5 = alloca i8, align 1
  store ptr %0, ptr %4, align 8
  store i8 %1, ptr %5, align 1
  %6 = load ptr, ptr %4, align 8
  %7 = getelementptr inbounds nuw %struct.INTERINTER_COMPOUND_DATA, ptr %6, i32 0, i32 4
  %8 = load i8, ptr %7, align 1
  %9 = zext i8 %8 to i32
  switch i32 %9, label %19 [
    i32 2, label %10
  ]

10:                                               ; preds = %2
  %11 = load ptr, ptr %4, align 8
  %12 = getelementptr inbounds nuw %struct.INTERINTER_COMPOUND_DATA, ptr %11, i32 0, i32 1
  %13 = load i8, ptr %12, align 8
  %14 = load ptr, ptr %4, align 8
  %15 = getelementptr inbounds nuw %struct.INTERINTER_COMPOUND_DATA, ptr %14, i32 0, i32 2
  %16 = load i8, ptr %15, align 1
  %17 = load i8, ptr %5, align 1
  %18 = call ptr @av1_get_contiguous_soft_mask(i8 noundef signext %13, i8 noundef signext %16, i8 noundef zeroext %17)
  store ptr %18, ptr %3, align 8
  br label %23

19:                                               ; preds = %2
  %20 = load ptr, ptr %4, align 8
  %21 = getelementptr inbounds nuw %struct.INTERINTER_COMPOUND_DATA, ptr %20, i32 0, i32 0
  %22 = load ptr, ptr %21, align 8
  store ptr %22, ptr %3, align 8
  br label %23

23:                                               ; preds = %19, %10
  %24 = load ptr, ptr %3, align 8
  ret ptr %24
}

; Function Attrs: nounwind uwtable
define internal void @build_masked_compound_no_round(ptr noundef %0, i32 noundef %1, ptr noundef %2, i32 noundef %3, ptr noundef %4, i32 noundef %5, ptr noundef %6, i8 noundef zeroext %7, i32 noundef %8, i32 noundef %9, ptr noundef %10) #0 {
  %12 = alloca ptr, align 8
  %13 = alloca i32, align 4
  %14 = alloca ptr, align 8
  %15 = alloca i32, align 4
  %16 = alloca ptr, align 8
  %17 = alloca i32, align 4
  %18 = alloca ptr, align 8
  %19 = alloca i8, align 1
  %20 = alloca i32, align 4
  %21 = alloca i32, align 4
  %22 = alloca ptr, align 8
  %23 = alloca i32, align 4
  %24 = alloca i32, align 4
  %25 = alloca ptr, align 8
  %26 = alloca i32, align 4
  store ptr %0, ptr %12, align 8
  store i32 %1, ptr %13, align 4
  store ptr %2, ptr %14, align 8
  store i32 %3, ptr %15, align 4
  store ptr %4, ptr %16, align 8
  store i32 %5, ptr %17, align 4
  store ptr %6, ptr %18, align 8
  store i8 %7, ptr %19, align 1
  store i32 %8, ptr %20, align 4
  store i32 %9, ptr %21, align 4
  store ptr %10, ptr %22, align 8
  %27 = load ptr, ptr %22, align 8
  %28 = getelementptr inbounds nuw %struct.InterPredParams, ptr %27, i32 0, i32 11
  %29 = load i32, ptr %28, align 4
  store i32 %29, ptr %23, align 4
  %30 = load ptr, ptr %22, align 8
  %31 = getelementptr inbounds nuw %struct.InterPredParams, ptr %30, i32 0, i32 10
  %32 = load i32, ptr %31, align 8
  store i32 %32, ptr %24, align 4
  %33 = load ptr, ptr %18, align 8
  %34 = load i8, ptr %19, align 1
  %35 = call ptr @av1_get_compound_type_mask(ptr noundef %33, i8 noundef zeroext %34)
  store ptr %35, ptr %25, align 8
  %36 = load i8, ptr %19, align 1
  %37 = zext i8 %36 to i64
  %38 = getelementptr inbounds [22 x i8], ptr @block_size_wide, i64 0, i64 %37
  %39 = load i8, ptr %38, align 1
  %40 = zext i8 %39 to i32
  store i32 %40, ptr %26, align 4
  %41 = load ptr, ptr %22, align 8
  %42 = getelementptr inbounds nuw %struct.InterPredParams, ptr %41, i32 0, i32 14
  %43 = load i32, ptr %42, align 4
  %44 = icmp ne i32 %43, 0
  br i1 %44, label %45, label %63

45:                                               ; preds = %11
  %46 = load ptr, ptr %12, align 8
  %47 = load i32, ptr %13, align 4
  %48 = load ptr, ptr %14, align 8
  %49 = load i32, ptr %15, align 4
  %50 = load ptr, ptr %16, align 8
  %51 = load i32, ptr %17, align 4
  %52 = load ptr, ptr %25, align 8
  %53 = load i32, ptr %26, align 4
  %54 = load i32, ptr %21, align 4
  %55 = load i32, ptr %20, align 4
  %56 = load i32, ptr %24, align 4
  %57 = load i32, ptr %23, align 4
  %58 = load ptr, ptr %22, align 8
  %59 = getelementptr inbounds nuw %struct.InterPredParams, ptr %58, i32 0, i32 3
  %60 = load ptr, ptr %22, align 8
  %61 = getelementptr inbounds nuw %struct.InterPredParams, ptr %60, i32 0, i32 13
  %62 = load i32, ptr %61, align 8
  call void @aom_highbd_blend_a64_d16_mask_c(ptr noundef %46, i32 noundef %47, ptr noundef %48, i32 noundef %49, ptr noundef %50, i32 noundef %51, ptr noundef %52, i32 noundef %53, i32 noundef %54, i32 noundef %55, i32 noundef %56, i32 noundef %57, ptr noundef %59, i32 noundef %62)
  br label %78

63:                                               ; preds = %11
  %64 = load ptr, ptr %12, align 8
  %65 = load i32, ptr %13, align 4
  %66 = load ptr, ptr %14, align 8
  %67 = load i32, ptr %15, align 4
  %68 = load ptr, ptr %16, align 8
  %69 = load i32, ptr %17, align 4
  %70 = load ptr, ptr %25, align 8
  %71 = load i32, ptr %26, align 4
  %72 = load i32, ptr %21, align 4
  %73 = load i32, ptr %20, align 4
  %74 = load i32, ptr %24, align 4
  %75 = load i32, ptr %23, align 4
  %76 = load ptr, ptr %22, align 8
  %77 = getelementptr inbounds nuw %struct.InterPredParams, ptr %76, i32 0, i32 3
  call void @aom_lowbd_blend_a64_d16_mask_c(ptr noundef %64, i32 noundef %65, ptr noundef %66, i32 noundef %67, ptr noundef %68, i32 noundef %69, ptr noundef %70, i32 noundef %71, i32 noundef %72, i32 noundef %73, i32 noundef %74, i32 noundef %75, ptr noundef %77)
  br label %78

78:                                               ; preds = %63, %45
  ret void
}

; Function Attrs: nounwind uwtable
define internal void @make_masked_inter_predictor(ptr noundef %0, i32 noundef %1, ptr noundef %2, i32 noundef %3, ptr noundef %4, ptr noundef %5) #0 {
  %7 = alloca ptr, align 8
  %8 = alloca i32, align 4
  %9 = alloca ptr, align 8
  %10 = alloca i32, align 4
  %11 = alloca ptr, align 8
  %12 = alloca ptr, align 8
  %13 = alloca ptr, align 8
  %14 = alloca i8, align 1
  %15 = alloca [32768 x i8], align 32
  %16 = alloca ptr, align 8
  %17 = alloca i32, align 4
  %18 = alloca ptr, align 8
  %19 = alloca i32, align 4
  %20 = alloca ptr, align 8
  store ptr %0, ptr %7, align 8
  store i32 %1, ptr %8, align 4
  store ptr %2, ptr %9, align 8
  store i32 %3, ptr %10, align 4
  store ptr %4, ptr %11, align 8
  store ptr %5, ptr %12, align 8
  %21 = load ptr, ptr %11, align 8
  %22 = getelementptr inbounds nuw %struct.InterPredParams, ptr %21, i32 0, i32 15
  store ptr %22, ptr %13, align 8
  %23 = load ptr, ptr %11, align 8
  %24 = getelementptr inbounds nuw %struct.InterPredParams, ptr %23, i32 0, i32 16
  %25 = load i8, ptr %24, align 8
  store i8 %25, ptr %14, align 1
  %26 = load ptr, ptr %11, align 8
  %27 = getelementptr inbounds nuw %struct.InterPredParams, ptr %26, i32 0, i32 14
  %28 = load i32, ptr %27, align 4
  %29 = icmp ne i32 %28, 0
  br i1 %29, label %30, label %35

30:                                               ; preds = %6
  %31 = getelementptr inbounds [32768 x i8], ptr %15, i64 0, i64 0
  %32 = ptrtoint ptr %31 to i64
  %33 = lshr i64 %32, 1
  %34 = inttoptr i64 %33 to ptr
  br label %37

35:                                               ; preds = %6
  %36 = getelementptr inbounds [32768 x i8], ptr %15, i64 0, i64 0
  br label %37

37:                                               ; preds = %35, %30
  %38 = phi ptr [ %34, %30 ], [ %36, %35 ]
  store ptr %38, ptr %16, align 8
  store i32 128, ptr %17, align 4
  %39 = load ptr, ptr %11, align 8
  %40 = getelementptr inbounds nuw %struct.InterPredParams, ptr %39, i32 0, i32 3
  %41 = getelementptr inbounds nuw %struct.ConvolveParams, ptr %40, i32 0, i32 1
  %42 = load ptr, ptr %41, align 8
  store ptr %42, ptr %18, align 8
  %43 = load ptr, ptr %11, align 8
  %44 = getelementptr inbounds nuw %struct.InterPredParams, ptr %43, i32 0, i32 3
  %45 = getelementptr inbounds nuw %struct.ConvolveParams, ptr %44, i32 0, i32 2
  %46 = load i32, ptr %45, align 8
  store i32 %46, ptr %19, align 4
  %47 = getelementptr inbounds [32768 x i8], ptr %15, i64 0, i64 0
  store ptr %47, ptr %20, align 8
  %48 = load ptr, ptr %20, align 8
  %49 = load ptr, ptr %11, align 8
  %50 = getelementptr inbounds nuw %struct.InterPredParams, ptr %49, i32 0, i32 3
  %51 = getelementptr inbounds nuw %struct.ConvolveParams, ptr %50, i32 0, i32 1
  store ptr %48, ptr %51, align 8
  %52 = load ptr, ptr %11, align 8
  %53 = getelementptr inbounds nuw %struct.InterPredParams, ptr %52, i32 0, i32 3
  %54 = getelementptr inbounds nuw %struct.ConvolveParams, ptr %53, i32 0, i32 2
  store i32 128, ptr %54, align 8
  %55 = load ptr, ptr %7, align 8
  %56 = load i32, ptr %8, align 4
  %57 = load ptr, ptr %16, align 8
  %58 = load ptr, ptr %11, align 8
  %59 = load ptr, ptr %12, align 8
  call void @av1_make_inter_predictor(ptr noundef %55, i32 noundef %56, ptr noundef %57, i32 noundef 128, ptr noundef %58, ptr noundef %59)
  %60 = load ptr, ptr %11, align 8
  %61 = getelementptr inbounds nuw %struct.InterPredParams, ptr %60, i32 0, i32 3
  %62 = getelementptr inbounds nuw %struct.ConvolveParams, ptr %61, i32 0, i32 5
  %63 = load i32, ptr %62, align 4
  %64 = icmp ne i32 %63, 0
  br i1 %64, label %92, label %65

65:                                               ; preds = %37
  %66 = load ptr, ptr %13, align 8
  %67 = getelementptr inbounds nuw %struct.INTERINTER_COMPOUND_DATA, ptr %66, i32 0, i32 4
  %68 = load i8, ptr %67, align 1
  %69 = zext i8 %68 to i32
  %70 = icmp eq i32 %69, 3
  br i1 %70, label %71, label %92

71:                                               ; preds = %65
  %72 = load ptr, ptr %13, align 8
  %73 = getelementptr inbounds nuw %struct.INTERINTER_COMPOUND_DATA, ptr %72, i32 0, i32 0
  %74 = load ptr, ptr %73, align 8
  %75 = load ptr, ptr %13, align 8
  %76 = getelementptr inbounds nuw %struct.INTERINTER_COMPOUND_DATA, ptr %75, i32 0, i32 3
  %77 = load i8, ptr %76, align 2
  %78 = load ptr, ptr %18, align 8
  %79 = load i32, ptr %19, align 4
  %80 = load ptr, ptr %20, align 8
  %81 = load ptr, ptr %11, align 8
  %82 = getelementptr inbounds nuw %struct.InterPredParams, ptr %81, i32 0, i32 6
  %83 = load i32, ptr %82, align 4
  %84 = load ptr, ptr %11, align 8
  %85 = getelementptr inbounds nuw %struct.InterPredParams, ptr %84, i32 0, i32 5
  %86 = load i32, ptr %85, align 8
  %87 = load ptr, ptr %11, align 8
  %88 = getelementptr inbounds nuw %struct.InterPredParams, ptr %87, i32 0, i32 3
  %89 = load ptr, ptr %11, align 8
  %90 = getelementptr inbounds nuw %struct.InterPredParams, ptr %89, i32 0, i32 13
  %91 = load i32, ptr %90, align 8
  call void @av1_build_compound_diffwtd_mask_d16_c(ptr noundef %74, i8 noundef zeroext %77, ptr noundef %78, i32 noundef %79, ptr noundef %80, i32 noundef 128, i32 noundef %83, i32 noundef %86, ptr noundef %88, i32 noundef %91)
  br label %92

92:                                               ; preds = %71, %65, %37
  %93 = load ptr, ptr %9, align 8
  %94 = load i32, ptr %10, align 4
  %95 = load ptr, ptr %18, align 8
  %96 = load i32, ptr %19, align 4
  %97 = load ptr, ptr %20, align 8
  %98 = load ptr, ptr %13, align 8
  %99 = load i8, ptr %14, align 1
  %100 = load ptr, ptr %11, align 8
  %101 = getelementptr inbounds nuw %struct.InterPredParams, ptr %100, i32 0, i32 6
  %102 = load i32, ptr %101, align 4
  %103 = load ptr, ptr %11, align 8
  %104 = getelementptr inbounds nuw %struct.InterPredParams, ptr %103, i32 0, i32 5
  %105 = load i32, ptr %104, align 8
  %106 = load ptr, ptr %11, align 8
  call void @build_masked_compound_no_round(ptr noundef %93, i32 noundef %94, ptr noundef %95, i32 noundef %96, ptr noundef %97, i32 noundef 128, ptr noundef %98, i8 noundef zeroext %99, i32 noundef %102, i32 noundef %105, ptr noundef %106)
  ret void
}

; Function Attrs: nounwind uwtable
define hidden void @av1_build_one_inter_predictor(ptr noundef %0, i32 noundef %1, ptr noundef %2, ptr noundef %3, ptr noundef %4, i32 noundef %5, i32 noundef %6, i32 noundef %7, ptr noundef %8, ptr noundef %9) #0 {
  %11 = alloca ptr, align 8
  %12 = alloca i32, align 4
  %13 = alloca ptr, align 8
  %14 = alloca ptr, align 8
  %15 = alloca ptr, align 8
  %16 = alloca i32, align 4
  %17 = alloca i32, align 4
  %18 = alloca i32, align 4
  %19 = alloca ptr, align 8
  %20 = alloca ptr, align 8
  %21 = alloca %struct.SubpelParams, align 4
  %22 = alloca ptr, align 8
  %23 = alloca i32, align 4
  store ptr %0, ptr %11, align 8
  store i32 %1, ptr %12, align 4
  store ptr %2, ptr %13, align 8
  store ptr %3, ptr %14, align 8
  store ptr %4, ptr %15, align 8
  store i32 %5, ptr %16, align 4
  store i32 %6, ptr %17, align 4
  store i32 %7, ptr %18, align 4
  store ptr %8, ptr %19, align 8
  store ptr %9, ptr %20, align 8
  %24 = load ptr, ptr %20, align 8
  %25 = load ptr, ptr %13, align 8
  %26 = load ptr, ptr %14, align 8
  %27 = load ptr, ptr %15, align 8
  %28 = load i32, ptr %16, align 4
  %29 = load i32, ptr %17, align 4
  %30 = load i32, ptr %18, align 4
  %31 = load ptr, ptr %19, align 8
  call void %24(ptr noundef %25, ptr noundef %26, ptr noundef %27, i32 noundef %28, i32 noundef %29, i32 noundef %30, ptr noundef %31, ptr noundef %22, ptr noundef %21, ptr noundef %23)
  %32 = load ptr, ptr %14, align 8
  %33 = getelementptr inbounds nuw %struct.InterPredParams, ptr %32, i32 0, i32 1
  %34 = load i32, ptr %33, align 4
  %35 = icmp eq i32 %34, 0
  br i1 %35, label %41, label %36

36:                                               ; preds = %10
  %37 = load ptr, ptr %14, align 8
  %38 = getelementptr inbounds nuw %struct.InterPredParams, ptr %37, i32 0, i32 1
  %39 = load i32, ptr %38, align 4
  %40 = icmp eq i32 %39, 1
  br i1 %40, label %41, label %47

41:                                               ; preds = %36, %10
  %42 = load ptr, ptr %22, align 8
  %43 = load i32, ptr %23, align 4
  %44 = load ptr, ptr %11, align 8
  %45 = load i32, ptr %12, align 4
  %46 = load ptr, ptr %14, align 8
  call void @av1_make_inter_predictor(ptr noundef %42, i32 noundef %43, ptr noundef %44, i32 noundef %45, ptr noundef %46, ptr noundef %21)
  br label %53

47:                                               ; preds = %36
  %48 = load ptr, ptr %22, align 8
  %49 = load i32, ptr %23, align 4
  %50 = load ptr, ptr %11, align 8
  %51 = load i32, ptr %12, align 4
  %52 = load ptr, ptr %14, align 8
  call void @make_masked_inter_predictor(ptr noundef %48, i32 noundef %49, ptr noundef %50, i32 noundef %51, ptr noundef %52, ptr noundef %21)
  br label %53

53:                                               ; preds = %47, %41
  ret void
}