; Function Attrs: nounwind uwtable
define hidden void @av1_build_one_inter_predictor(ptr noundef %0, i32 noundef %1, ptr noundef %2, ptr noundef %3, ptr noundef %4, i32 noundef %5, i32 noundef %6, i32 noundef %7, ptr noundef %8, ptr nocapture noundef readonly %9) local_unnamed_addr #4 {
  %11 = alloca [32768 x i8], align 32
  %12 = alloca %struct.SubpelParams, align 4
  %13 = alloca ptr, align 8
  %14 = alloca i32, align 4
  call void %9(ptr noundef %2, ptr noundef %3, ptr noundef %4, i32 noundef %5, i32 noundef %6, i32 noundef %7, ptr noundef %8, ptr noundef nonnull %13, ptr noundef nonnull %12, ptr noundef nonnull %14) #18
  %15 = getelementptr inbounds nuw i8, ptr %3, i64 4
  %16 = load i32, ptr %15, align 4
  %switch = icmp ult i32 %16, 2
  %17 = load ptr, ptr %13, align 8
  %18 = load i32, ptr %14, align 4
  br i1 %switch, label %19, label %20

19:                                               ; preds = %10
  call void @av1_make_inter_predictor(ptr noundef %17, i32 noundef %18, ptr noundef %0, i32 noundef %1, ptr noundef nonnull %3, ptr noundef nonnull %12)
  br label %81

20:                                               ; preds = %10
  call void @llvm.lifetime.start.p0(i64 32768, ptr nonnull %11)
  %21 = getelementptr inbounds nuw i8, ptr %3, i64 192
  %22 = getelementptr inbounds nuw i8, ptr %3, i64 208
  %23 = load i8, ptr %22, align 8
  %24 = getelementptr inbounds nuw i8, ptr %3, i64 188
  %25 = load i32, ptr %24, align 4
  %.not.i = icmp eq i32 %25, 0
  %26 = ptrtoint ptr %11 to i64
  %27 = lshr exact i64 %26, 1
  %28 = inttoptr i64 %27 to ptr
  %29 = select i1 %.not.i, ptr %11, ptr %28
  %30 = getelementptr inbounds nuw i8, ptr %3, i64 56
  %31 = getelementptr inbounds i8, ptr %3, i64 64
  %32 = load ptr, ptr %31, align 8
  %33 = getelementptr inbounds i8, ptr %3, i64 72
  %34 = load i32, ptr %33, align 8
  store ptr %11, ptr %31, align 8
  store i32 128, ptr %33, align 8
  call void @av1_make_inter_predictor(ptr noundef %17, i32 noundef %18, ptr noundef nonnull %29, i32 noundef 128, ptr noundef nonnull %3, ptr noundef nonnull readonly %12)
  %35 = getelementptr inbounds i8, ptr %3, i64 84
  %36 = load i32, ptr %35, align 4
  %.not33.i = icmp eq i32 %36, 0
  br i1 %.not33.i, label %37, label %51

37:                                               ; preds = %20
  %38 = getelementptr inbounds i8, ptr %3, i64 203
  %39 = load i8, ptr %38, align 1
  %40 = icmp eq i8 %39, 3
  br i1 %40, label %41, label %51

41:                                               ; preds = %37
  %42 = load ptr, ptr %21, align 8
  %43 = getelementptr inbounds i8, ptr %3, i64 202
  %44 = load i8, ptr %43, align 2
  %45 = getelementptr inbounds nuw i8, ptr %3, i64 124
  %46 = load i32, ptr %45, align 4
  %47 = getelementptr inbounds nuw i8, ptr %3, i64 120
  %48 = load i32, ptr %47, align 8
  %49 = getelementptr inbounds nuw i8, ptr %3, i64 184
  %50 = load i32, ptr %49, align 8
  call void @av1_build_compound_diffwtd_mask_d16_c(ptr noundef %42, i8 noundef zeroext %44, ptr noundef %32, i32 noundef %34, ptr noundef nonnull %11, i32 noundef 128, i32 noundef %46, i32 noundef %48, ptr noundef nonnull %30, i32 noundef %50)
  br label %51

51:                                               ; preds = %41, %37, %20
  %52 = getelementptr inbounds nuw i8, ptr %3, i64 124
  %53 = load i32, ptr %52, align 4
  %54 = getelementptr inbounds nuw i8, ptr %3, i64 120
  %55 = load i32, ptr %54, align 8
  %56 = getelementptr inbounds nuw i8, ptr %3, i64 172
  %57 = load i32, ptr %56, align 4
  %58 = getelementptr inbounds nuw i8, ptr %3, i64 168
  %59 = load i32, ptr %58, align 8
  %60 = getelementptr inbounds i8, ptr %3, i64 203
  %61 = load i8, ptr %60, align 1
  %cond.i.i.i = icmp eq i8 %61, 2
  br i1 %cond.i.i.i, label %62, label %.av1_get_compound_type_mask.exit_crit_edge.i.i

.av1_get_compound_type_mask.exit_crit_edge.i.i:   ; preds = %51
  %.pre.i.i = zext i8 %23 to i64
  br label %av1_get_compound_type_mask.exit.i.i

62:                                               ; preds = %51
  %63 = getelementptr inbounds i8, ptr %3, i64 200
  %64 = load i8, ptr %63, align 8
  %65 = getelementptr inbounds i8, ptr %3, i64 201
  %66 = load i8, ptr %65, align 1
  %67 = zext i8 %23 to i64
  %68 = getelementptr inbounds [22 x %struct.wedge_params_type], ptr @av1_wedge_params_lookup, i64 0, i64 %67, i32 3
  %69 = load ptr, ptr %68, align 8
  %70 = sext i8 %66 to i64
  %71 = sext i8 %64 to i64
  %72 = getelementptr inbounds [16 x ptr], ptr %69, i64 %70, i64 %71
  br label %av1_get_compound_type_mask.exit.i.i

av1_get_compound_type_mask.exit.i.i:              ; preds = %62, %.av1_get_compound_type_mask.exit_crit_edge.i.i
  %.pre-phi.i.i = phi i64 [ %.pre.i.i, %.av1_get_compound_type_mask.exit_crit_edge.i.i ], [ %67, %62 ]
  %.0.in.i.i.i = phi ptr [ %21, %.av1_get_compound_type_mask.exit_crit_edge.i.i ], [ %72, %62 ]
  %.0.i.i.i = load ptr, ptr %.0.in.i.i.i, align 8
  %73 = getelementptr inbounds [22 x i8], ptr @block_size_wide, i64 0, i64 %.pre-phi.i.i
  %74 = load i8, ptr %73, align 1
  %75 = zext i8 %74 to i32
  %76 = load i32, ptr %24, align 4
  %.not.i.i = icmp eq i32 %76, 0
  br i1 %.not.i.i, label %80, label %77

77:                                               ; preds = %av1_get_compound_type_mask.exit.i.i
  %78 = getelementptr inbounds nuw i8, ptr %3, i64 184
  %79 = load i32, ptr %78, align 8
  call void @aom_highbd_blend_a64_d16_mask_c(ptr noundef %0, i32 noundef %1, ptr noundef %32, i32 noundef %34, ptr noundef nonnull %11, i32 noundef 128, ptr noundef %.0.i.i.i, i32 noundef %75, i32 noundef %55, i32 noundef %53, i32 noundef %59, i32 noundef %57, ptr noundef nonnull %30, i32 noundef %79) #18
  br label %make_masked_inter_predictor.exit

80:                                               ; preds = %av1_get_compound_type_mask.exit.i.i
  call void @aom_lowbd_blend_a64_d16_mask_c(ptr noundef %0, i32 noundef %1, ptr noundef %32, i32 noundef %34, ptr noundef nonnull %11, i32 noundef 128, ptr noundef %.0.i.i.i, i32 noundef %75, i32 noundef %55, i32 noundef %53, i32 noundef %59, i32 noundef %57, ptr noundef nonnull %30) #18
  br label %make_masked_inter_predictor.exit

make_masked_inter_predictor.exit:                 ; preds = %77, %80
  call void @llvm.lifetime.end.p0(i64 32768, ptr nonnull %11)
  br label %81

81:                                               ; preds = %make_masked_inter_predictor.exit, %19
  ret void
}